; Function Attrs: nounwind uwtable
define dso_local i64 @ExecInterpExprStillValid(ptr noundef %0, ptr noundef %1, ptr noundef %2) #0 {
  %4 = getelementptr inbounds nuw i8, ptr %1, i64 16
  %5 = load ptr, ptr %4, align 8
  %6 = getelementptr inbounds nuw i8, ptr %1, i64 24
  %7 = load ptr, ptr %6, align 8
  %8 = getelementptr inbounds nuw i8, ptr %1, i64 8
  %9 = load ptr, ptr %8, align 8
  %10 = getelementptr inbounds nuw i8, ptr %1, i64 112
  %11 = load ptr, ptr %10, align 8
  %12 = getelementptr inbounds nuw i8, ptr %1, i64 120
  %13 = load ptr, ptr %12, align 8
  %14 = getelementptr inbounds nuw i8, ptr %0, i64 56
  %15 = load i32, ptr %14, align 8
  %16 = icmp sgt i32 %15, 0
  br i1 %16, label %.lr.ph.i, label %CheckExprStillValid.exit

.lr.ph.i:                                         ; preds = %3
  %17 = getelementptr inbounds nuw i8, ptr %0, i64 24
  %18 = getelementptr inbounds nuw i8, ptr %0, i64 4
  br label %19

19:                                               ; preds = %51, %.lr.ph.i
  %20 = phi i32 [ %15, %.lr.ph.i ], [ %52, %51 ]
  %indvars.iv.i = phi i64 [ 0, %.lr.ph.i ], [ %indvars.iv.next.i, %51 ]
  %21 = load ptr, ptr %17, align 8
  %22 = getelementptr inbounds nuw %struct.ExprEvalStep, ptr %21, i64 %indvars.iv.i
  %23 = load i8, ptr %18, align 4
  %24 = and i8 %23, 64
  %.not.i.i = icmp eq i8 %24, 0
  %25 = load i64, ptr %22, align 8
  br i1 %.not.i.i, label %40, label %26

26:                                               ; preds = %19
  %27 = inttoptr i64 %25 to ptr
  br label %.lr.ph.i.i.i

.lr.ph.i.i.i:                                     ; preds = %37, %26
  %.01621.i.i.i = phi i64 [ %.1.i.i.i, %37 ], [ 0, %26 ]
  %.01720.i.i.i = phi i64 [ %.118.i.i.i, %37 ], [ 116, %26 ]
  %28 = add i64 %.01720.i.i.i, %.01621.i.i.i
  %29 = lshr i64 %28, 1
  %30 = shl i64 %29, 4
  %31 = getelementptr inbounds nuw i8, ptr @reverse_dispatch_table, i64 %30
  %32 = load ptr, ptr %31, align 16
  %33 = icmp ugt ptr %32, %27
  br i1 %33, label %37, label %34

34:                                               ; preds = %.lr.ph.i.i.i
  %.not5.i.i = icmp ult ptr %32, %27
  br i1 %.not5.i.i, label %35, label %bsearch.exit.i.i

35:                                               ; preds = %34
  %36 = add nuw i64 %29, 1
  br label %37

37:                                               ; preds = %35, %.lr.ph.i.i.i
  %.118.i.i.i = phi i64 [ %.01720.i.i.i, %35 ], [ %29, %.lr.ph.i.i.i ]
  %.1.i.i.i = phi i64 [ %36, %35 ], [ %.01621.i.i.i, %.lr.ph.i.i.i ]
  %38 = icmp ult i64 %.1.i.i.i, %.118.i.i.i
  tail call void @llvm.assume(i1 %38)
  br label %.lr.ph.i.i.i

bsearch.exit.i.i:                                 ; preds = %34
  %gep.i = getelementptr i8, ptr getelementptr inbounds nuw (i8, ptr @reverse_dispatch_table, i64 8), i64 %30
  %39 = load i32, ptr %gep.i, align 8
  br label %ExecEvalStepOp.exit.i

40:                                               ; preds = %19
  %41 = trunc i64 %25 to i32
  br label %ExecEvalStepOp.exit.i

ExecEvalStepOp.exit.i:                            ; preds = %40, %bsearch.exit.i.i
  %.0.i.i = phi i32 [ %39, %bsearch.exit.i.i ], [ %41, %40 ]
  switch i32 %.0.i.i, label %51 [
    i32 6, label %.sink.split.i
    i32 7, label %42
    i32 8, label %43
    i32 9, label %44
    i32 10, label %45
  ]

42:                                               ; preds = %ExecEvalStepOp.exit.i
  br label %.sink.split.i

43:                                               ; preds = %ExecEvalStepOp.exit.i
  br label %.sink.split.i

44:                                               ; preds = %ExecEvalStepOp.exit.i
  br label %.sink.split.i

45:                                               ; preds = %ExecEvalStepOp.exit.i
  br label %.sink.split.i

.sink.split.i:                                    ; preds = %45, %44, %43, %42, %ExecEvalStepOp.exit.i
  %.sink.i = phi ptr [ %13, %45 ], [ %11, %44 ], [ %9, %43 ], [ %7, %42 ], [ %5, %ExecEvalStepOp.exit.i ]
  %46 = getelementptr inbounds nuw i8, ptr %22, i64 24
  %47 = load i32, ptr %46, align 8
  %48 = add i32 %47, 1
  %49 = getelementptr inbounds nuw i8, ptr %22, i64 28
  %50 = load i32, ptr %49, align 4
  tail call fastcc void @CheckVarSlotCompatibility(ptr noundef %.sink.i, i32 noundef %48, i32 noundef %50)
  %.pre = load i32, ptr %14, align 8
  br label %51

51:                                               ; preds = %.sink.split.i, %ExecEvalStepOp.exit.i
  %52 = phi i32 [ %.pre, %.sink.split.i ], [ %20, %ExecEvalStepOp.exit.i ]
  %indvars.iv.next.i = add nuw nsw i64 %indvars.iv.i, 1
  %53 = sext i32 %52 to i64
  %54 = icmp slt i64 %indvars.iv.next.i, %53
  br i1 %54, label %19, label %CheckExprStillValid.exit, !llvm.loop !7

CheckExprStillValid.exit:                         ; preds = %51, %3
  %55 = getelementptr inbounds nuw i8, ptr %0, i64 48
  %56 = load ptr, ptr %55, align 8
  %57 = getelementptr inbounds nuw i8, ptr %0, i64 32
  store ptr %56, ptr %57, align 8
  %58 = tail call i64 %56(ptr noundef nonnull %0, ptr noundef %1, ptr noundef %2) #18
  ret i64 %58
}